; Function Attrs: mustprogress nofree nounwind willreturn uwtable
define internal fastcc void @_ZL7getBBoxN7dropbox6oxygen2nnISt10shared_ptrIN5osgeo4proj8metadata6ExtentEEEE(ptr dead_on_unwind noalias nonnull writable writeonly align 8 captures(none) initializes((0, 16)) %0, ptr nonnull readonly %.0.val) unnamed_addr #11 personality ptr @__gxx_personality_v0 {
  %2 = tail call noundef nonnull align 8 dereferenceable(24) ptr @_ZNK5osgeo4proj8metadata6Extent18geographicElementsEv(ptr noundef nonnull align 8 dereferenceable(32) %.0.val) #29
  %3 = load ptr, ptr %2, align 8, !tbaa !71
  %4 = load ptr, ptr %3, align 8, !tbaa !104
  store ptr %4, ptr %0, align 8, !tbaa !104
  %5 = getelementptr inbounds nuw i8, ptr %0, i64 8
  %6 = getelementptr inbounds nuw i8, ptr %3, i64 8
  %7 = load ptr, ptr %6, align 8, !tbaa !50
  store ptr %7, ptr %5, align 8, !tbaa !50
  %.not.i.i.i.i = icmp eq ptr %7, null
  br i1 %.not.i.i.i.i, label %_ZN7dropbox6oxygen2nnISt10shared_ptrIN5osgeo4proj8metadata16GeographicExtentEEEC2ERKS8_.exit, label %8

8:                                                ; preds = %1
  %9 = getelementptr inbounds nuw i8, ptr %7, i64 8
  %10 = load i8, ptr @__libc_single_threaded, align 1, !tbaa !25
  %.not.i.i.i.i.i = icmp eq i8 %10, 0
  br i1 %.not.i.i.i.i.i, label %14, label %11

11:                                               ; preds = %8
  %12 = load i32, ptr %9, align 4, !tbaa !56
  %13 = add nsw i32 %12, 1
  store i32 %13, ptr %9, align 4, !tbaa !56
  br label %_ZN7dropbox6oxygen2nnISt10shared_ptrIN5osgeo4proj8metadata16GeographicExtentEEEC2ERKS8_.exit

14:                                               ; preds = %8
  %15 = atomicrmw volatile add ptr %9, i32 1 acq_rel, align 4
  br label %_ZN7dropbox6oxygen2nnISt10shared_ptrIN5osgeo4proj8metadata16GeographicExtentEEEC2ERKS8_.exit

_ZN7dropbox6oxygen2nnISt10shared_ptrIN5osgeo4proj8metadata16GeographicExtentEEEC2ERKS8_.exit: ; preds = %1, %11, %14
  ret void
}